; Function Attrs: mustprogress uwtable
define hidden void @hb_font_add_glyph_origin_for_direction(ptr noundef %0, i32 noundef %1, i32 noundef %2, ptr nocapture noundef %3, ptr nocapture noundef %4) local_unnamed_addr #1 {
  %6 = alloca i32, align 4
  %7 = alloca i32, align 4
  call void @llvm.lifetime.start.p0(i64 4, ptr nonnull %6)
  call void @llvm.lifetime.start.p0(i64 4, ptr nonnull %7)
  %8 = and i32 %2, -2
  %9 = icmp eq i32 %8, 4
  br i1 %9, label %10, label %11

10:                                               ; preds = %5
  call void @_ZN9hb_font_t32get_glyph_h_origin_with_fallbackEjPiS0_(ptr noundef nonnull align 8 dereferenceable(192) %0, i32 noundef %1, ptr noundef nonnull %6, ptr noundef nonnull %7)
  br label %_ZN9hb_font_t30add_glyph_origin_for_directionEj14hb_direction_tPiS1_.exit

11:                                               ; preds = %5
  call void @_ZN9hb_font_t32get_glyph_v_origin_with_fallbackEjPiS0_(ptr noundef nonnull align 8 dereferenceable(192) %0, i32 noundef %1, ptr noundef nonnull %6, ptr noundef nonnull %7)
  br label %_ZN9hb_font_t30add_glyph_origin_for_directionEj14hb_direction_tPiS1_.exit

_ZN9hb_font_t30add_glyph_origin_for_directionEj14hb_direction_tPiS1_.exit: ; preds = %10, %11
  %12 = load i32, ptr %6, align 4
  %13 = load i32, ptr %3, align 4
  %14 = add nsw i32 %13, %12
  store i32 %14, ptr %3, align 4
  %15 = load i32, ptr %7, align 4
  %16 = load i32, ptr %4, align 4
  %17 = add nsw i32 %16, %15
  store i32 %17, ptr %4, align 4
  call void @llvm.lifetime.end.p0(i64 4, ptr nonnull %6)
  call void @llvm.lifetime.end.p0(i64 4, ptr nonnull %7)
  ret void
}